target datalayout = "e-m:e-p270:32:32-p271:32:32-p272:64:64-i64:64-i128:128-f80:128-n8:16:32:64-S128"
target triple = "x86_64-pc-linux-gnu"

%struct._zend_refcounted_h = type { i32, %union.anon }
%union.anon = type { i32 }
%struct._zval_struct = type { %union._zend_value, %union.anon.0, %union.anon.3 }
%union._zend_value = type { i64 }
%union.anon.0 = type { i32 }
%union.anon.3 = type { i32 }
%struct.zend_get_gc_buffer = type { ptr, ptr, ptr }
%struct._zend_generator = type { %struct._zend_object, ptr, ptr, %struct._zval_struct, %struct._zval_struct, %struct._zval_struct, ptr, i64, %struct._zval_struct, %struct._zend_generator_node, %struct._zend_execute_data, ptr, i8 }
%struct._zend_object = type { %struct._zend_refcounted_h, i32, i32, ptr, ptr, ptr, [1 x %struct._zval_struct] }
%struct._zend_generator_node = type { ptr, i32, %union.anon.4, %union.anon.5 }
%union.anon.4 = type { ptr }
%union.anon.5 = type { ptr }
%struct._zend_execute_data = type { ptr, ptr, ptr, ptr, %struct._zval_struct, ptr, ptr, ptr, ptr }
%struct.anon.1 = type { i8, i8, %union.anon.2 }
%union.anon.2 = type { i16 }

; Function Attrs: alwaysinline nounwind uwtable
define internal void @zend_get_gc_buffer_add_obj(ptr noundef %0, ptr noundef %1) #2 {
  %3 = alloca ptr, align 8
  %4 = alloca ptr, align 8
  %5 = alloca ptr, align 8
  store ptr %0, ptr %3, align 8, !tbaa !34
  store ptr %1, ptr %4, align 8, !tbaa !59
  %6 = load ptr, ptr %4, align 8, !tbaa !59
  %7 = icmp ne ptr %6, null
  call void @llvm.assume(i1 %7)
  %8 = load ptr, ptr %3, align 8, !tbaa !34
  %9 = getelementptr inbounds nuw %struct.zend_get_gc_buffer, ptr %8, i32 0, i32 0
  %10 = load ptr, ptr %9, align 8, !tbaa !74
  %11 = load ptr, ptr %3, align 8, !tbaa !34
  %12 = getelementptr inbounds nuw %struct.zend_get_gc_buffer, ptr %11, i32 0, i32 1
  %13 = load ptr, ptr %12, align 8, !tbaa !76
  %14 = icmp eq ptr %10, %13
  %15 = xor i1 %14, true
  %16 = xor i1 %15, true
  %17 = zext i1 %16 to i32
  %18 = sext i32 %17 to i64
  %19 = call i64 @llvm.expect.i64(i64 %18, i64 0)
  %20 = icmp ne i64 %19, 0
  br i1 %20, label %21, label %23

21:                                               ; preds = %2
  %22 = load ptr, ptr %3, align 8, !tbaa !34
  call void @zend_get_gc_buffer_grow(ptr noundef %22)
  br label %23

23:                                               ; preds = %21, %2
  br label %24

24:                                               ; preds = %23
  call void @llvm.lifetime.start.p0(i64 8, ptr %5) #11
  %25 = load ptr, ptr %3, align 8, !tbaa !34
  %26 = getelementptr inbounds nuw %struct.zend_get_gc_buffer, ptr %25, i32 0, i32 0
  %27 = load ptr, ptr %26, align 8, !tbaa !74
  store ptr %27, ptr %5, align 8, !tbaa !36
  %28 = load ptr, ptr %4, align 8, !tbaa !59
  %29 = load ptr, ptr %5, align 8, !tbaa !36
  %30 = getelementptr inbounds nuw %struct._zval_struct, ptr %29, i32 0, i32 0
  store ptr %28, ptr %30, align 8, !tbaa !26
  %31 = load ptr, ptr %5, align 8, !tbaa !36
  %32 = getelementptr inbounds nuw %struct._zval_struct, ptr %31, i32 0, i32 1
  store i32 776, ptr %32, align 8, !tbaa !26
  call void @llvm.lifetime.end.p0(i64 8, ptr %5) #11
  br label %33

33:                                               ; preds = %24
  %34 = load ptr, ptr %3, align 8, !tbaa !34
  %35 = getelementptr inbounds nuw %struct.zend_get_gc_buffer, ptr %34, i32 0, i32 0
  %36 = load ptr, ptr %35, align 8, !tbaa !74
  %37 = getelementptr inbounds nuw %struct._zval_struct, ptr %36, i32 1
  store ptr %37, ptr %35, align 8, !tbaa !74
  ret void
}

; Function Attrs: nounwind uwtable
define internal ptr @zend_generator_revert_call_stack(ptr noundef %0) #0 {
  %2 = alloca ptr, align 8
  %3 = alloca ptr, align 8
  %4 = alloca ptr, align 8
  store ptr %0, ptr %2, align 8, !tbaa !9
  call void @llvm.lifetime.start.p0(i64 8, ptr %3) #11
  store ptr null, ptr %3, align 8, !tbaa !9
  br label %5

5:                                                ; preds = %14, %1
  call void @llvm.lifetime.start.p0(i64 8, ptr %4) #11
  %6 = load ptr, ptr %2, align 8, !tbaa !9
  %7 = getelementptr inbounds nuw %struct._zend_execute_data, ptr %6, i32 0, i32 5
  %8 = load ptr, ptr %7, align 8, !tbaa !29
  store ptr %8, ptr %4, align 8, !tbaa !9
  %9 = load ptr, ptr %3, align 8, !tbaa !9
  %10 = load ptr, ptr %2, align 8, !tbaa !9
  %11 = getelementptr inbounds nuw %struct._zend_execute_data, ptr %10, i32 0, i32 5
  store ptr %9, ptr %11, align 8, !tbaa !29
  %12 = load ptr, ptr %2, align 8, !tbaa !9
  store ptr %12, ptr %3, align 8, !tbaa !9
  %13 = load ptr, ptr %4, align 8, !tbaa !9
  store ptr %13, ptr %2, align 8, !tbaa !9
  call void @llvm.lifetime.end.p0(i64 8, ptr %4) #11
  br label %14

14:                                               ; preds = %5
  %15 = load ptr, ptr %2, align 8, !tbaa !9
  %16 = icmp ne ptr %15, null
  br i1 %16, label %5, label %17

17:                                               ; preds = %14
  %18 = load ptr, ptr %3, align 8, !tbaa !9
  call void @llvm.lifetime.end.p0(i64 8, ptr %3) #11
  ret ptr %18
}

; Function Attrs: alwaysinline nounwind uwtable
define internal void @zend_get_gc_buffer_add_zval(ptr noundef %0, ptr noundef %1) #2 {
  %3 = alloca ptr, align 8
  %4 = alloca ptr, align 8
  %5 = alloca ptr, align 8
  %6 = alloca ptr, align 8
  %7 = alloca ptr, align 8
  %8 = alloca i32, align 4
  store ptr %0, ptr %3, align 8, !tbaa !34
  store ptr %1, ptr %4, align 8, !tbaa !36
  %9 = load ptr, ptr %4, align 8, !tbaa !36
  %10 = getelementptr inbounds nuw %struct._zval_struct, ptr %9, i32 0, i32 1
  %11 = getelementptr inbounds nuw %struct.anon.1, ptr %10, i32 0, i32 1
  %12 = load i8, ptr %11, align 1, !tbaa !26
  %13 = zext i8 %12 to i32
  %14 = icmp ne i32 %13, 0
  br i1 %14, label %15, label %57

15:                                               ; preds = %2
  %16 = load ptr, ptr %3, align 8, !tbaa !34
  %17 = getelementptr inbounds nuw %struct.zend_get_gc_buffer, ptr %16, i32 0, i32 0
  %18 = load ptr, ptr %17, align 8, !tbaa !74
  %19 = load ptr, ptr %3, align 8, !tbaa !34
  %20 = getelementptr inbounds nuw %struct.zend_get_gc_buffer, ptr %19, i32 0, i32 1
  %21 = load ptr, ptr %20, align 8, !tbaa !76
  %22 = icmp eq ptr %18, %21
  %23 = xor i1 %22, true
  %24 = xor i1 %23, true
  %25 = zext i1 %24 to i32
  %26 = sext i32 %25 to i64
  %27 = call i64 @llvm.expect.i64(i64 %26, i64 0)
  %28 = icmp ne i64 %27, 0
  br i1 %28, label %29, label %31

29:                                               ; preds = %15
  %30 = load ptr, ptr %3, align 8, !tbaa !34
  call void @zend_get_gc_buffer_grow(ptr noundef %30)
  br label %31

31:                                               ; preds = %29, %15
  br label %32

32:                                               ; preds = %31
  call void @llvm.lifetime.start.p0(i64 8, ptr %5) #11
  %33 = load ptr, ptr %3, align 8, !tbaa !34
  %34 = getelementptr inbounds nuw %struct.zend_get_gc_buffer, ptr %33, i32 0, i32 0
  %35 = load ptr, ptr %34, align 8, !tbaa !74
  store ptr %35, ptr %5, align 8, !tbaa !36
  call void @llvm.lifetime.start.p0(i64 8, ptr %6) #11
  %36 = load ptr, ptr %4, align 8, !tbaa !36
  store ptr %36, ptr %6, align 8, !tbaa !36
  call void @llvm.lifetime.start.p0(i64 8, ptr %7) #11
  %37 = load ptr, ptr %6, align 8, !tbaa !36
  %38 = getelementptr inbounds nuw %struct._zval_struct, ptr %37, i32 0, i32 0
  %39 = load ptr, ptr %38, align 8, !tbaa !26
  store ptr %39, ptr %7, align 8, !tbaa !77
  call void @llvm.lifetime.start.p0(i64 4, ptr %8) #11
  %40 = load ptr, ptr %6, align 8, !tbaa !36
  %41 = getelementptr inbounds nuw %struct._zval_struct, ptr %40, i32 0, i32 1
  %42 = load i32, ptr %41, align 8, !tbaa !26
  store i32 %42, ptr %8, align 4, !tbaa !32
  br label %43

43:                                               ; preds = %32
  %44 = load ptr, ptr %7, align 8, !tbaa !77
  %45 = load ptr, ptr %5, align 8, !tbaa !36
  %46 = getelementptr inbounds nuw %struct._zval_struct, ptr %45, i32 0, i32 0
  store ptr %44, ptr %46, align 8, !tbaa !26
  %47 = load i32, ptr %8, align 4, !tbaa !32
  %48 = load ptr, ptr %5, align 8, !tbaa !36
  %49 = getelementptr inbounds nuw %struct._zval_struct, ptr %48, i32 0, i32 1
  store i32 %47, ptr %49, align 8, !tbaa !26
  br label %50

50:                                               ; preds = %43
  br label %51

51:                                               ; preds = %50
  call void @llvm.lifetime.end.p0(i64 4, ptr %8) #11
  call void @llvm.lifetime.end.p0(i64 8, ptr %7) #11
  call void @llvm.lifetime.end.p0(i64 8, ptr %6) #11
  call void @llvm.lifetime.end.p0(i64 8, ptr %5) #11
  br label %52

52:                                               ; preds = %51
  %53 = load ptr, ptr %3, align 8, !tbaa !34
  %54 = getelementptr inbounds nuw %struct.zend_get_gc_buffer, ptr %53, i32 0, i32 0
  %55 = load ptr, ptr %54, align 8, !tbaa !74
  %56 = getelementptr inbounds nuw %struct._zval_struct, ptr %55, i32 1
  store ptr %56, ptr %54, align 8, !tbaa !74
  br label %57

57:                                               ; preds = %52, %2
  ret void
}

; Function Attrs: nounwind uwtable
define hidden ptr @zend_generator_frame_gc(ptr noundef %0, ptr noundef %1) #0 {
  %3 = alloca ptr, align 8
  %4 = alloca ptr, align 8
  %5 = alloca ptr, align 8
  %6 = alloca ptr, align 8
  %7 = alloca ptr, align 8
  store ptr %0, ptr %3, align 8, !tbaa !34
  store ptr %1, ptr %4, align 8, !tbaa !4
  call void @llvm.lifetime.start.p0(i64 8, ptr %5) #11
  %8 = load ptr, ptr %4, align 8, !tbaa !4
  %9 = getelementptr inbounds nuw %struct._zend_generator, ptr %8, i32 0, i32 1
  %10 = load ptr, ptr %9, align 8, !tbaa !30
  store ptr %10, ptr %5, align 8, !tbaa !9
  call void @llvm.lifetime.start.p0(i64 8, ptr %6) #11
  store ptr null, ptr %6, align 8, !tbaa !9
  %11 = load ptr, ptr %3, align 8, !tbaa !34
  %12 = load ptr, ptr %4, align 8, !tbaa !4
  %13 = getelementptr inbounds nuw %struct._zend_generator, ptr %12, i32 0, i32 3
  call void @zend_get_gc_buffer_add_zval(ptr noundef %11, ptr noundef %13)
  %14 = load ptr, ptr %3, align 8, !tbaa !34
  %15 = load ptr, ptr %4, align 8, !tbaa !4
  %16 = getelementptr inbounds nuw %struct._zend_generator, ptr %15, i32 0, i32 4
  call void @zend_get_gc_buffer_add_zval(ptr noundef %14, ptr noundef %16)
  %17 = load ptr, ptr %3, align 8, !tbaa !34
  %18 = load ptr, ptr %4, align 8, !tbaa !4
  %19 = getelementptr inbounds nuw %struct._zend_generator, ptr %18, i32 0, i32 5
  call void @zend_get_gc_buffer_add_zval(ptr noundef %17, ptr noundef %19)
  %20 = load ptr, ptr %3, align 8, !tbaa !34
  %21 = load ptr, ptr %4, align 8, !tbaa !4
  %22 = getelementptr inbounds nuw %struct._zend_generator, ptr %21, i32 0, i32 8
  call void @zend_get_gc_buffer_add_zval(ptr noundef %20, ptr noundef %22)
  %23 = load ptr, ptr %4, align 8, !tbaa !4
  %24 = getelementptr inbounds nuw %struct._zend_generator, ptr %23, i32 0, i32 2
  %25 = load ptr, ptr %24, align 8, !tbaa !11
  %26 = icmp ne ptr %25, null
  %27 = xor i1 %26, true
  %28 = xor i1 %27, true
  %29 = zext i1 %28 to i32
  %30 = sext i32 %29 to i64
  %31 = call i64 @llvm.expect.i64(i64 %30, i64 0)
  %32 = icmp ne i64 %31, 0
  br i1 %32, label %33, label %38

33:                                               ; preds = %2
  %34 = load ptr, ptr %4, align 8, !tbaa !4
  %35 = getelementptr inbounds nuw %struct._zend_generator, ptr %34, i32 0, i32 2
  %36 = load ptr, ptr %35, align 8, !tbaa !11
  %37 = call ptr @zend_generator_revert_call_stack(ptr noundef %36)
  store ptr %37, ptr %6, align 8, !tbaa !9
  br label %38

38:                                               ; preds = %33, %2
  call void @llvm.lifetime.start.p0(i64 8, ptr %7) #11
  %39 = load ptr, ptr %5, align 8, !tbaa !9
  %40 = load ptr, ptr %6, align 8, !tbaa !9
  %41 = load ptr, ptr %3, align 8, !tbaa !34
  %42 = call ptr @zend_unfinished_execution_gc_ex(ptr noundef %39, ptr noundef %40, ptr noundef %41, i1 noundef zeroext true)
  store ptr %42, ptr %7, align 8, !tbaa !72
  %43 = load ptr, ptr %4, align 8, !tbaa !4
  %44 = getelementptr inbounds nuw %struct._zend_generator, ptr %43, i32 0, i32 2
  %45 = load ptr, ptr %44, align 8, !tbaa !11
  %46 = icmp ne ptr %45, null
  %47 = xor i1 %46, true
  %48 = xor i1 %47, true
  %49 = zext i1 %48 to i32
  %50 = sext i32 %49 to i64
  %51 = call i64 @llvm.expect.i64(i64 %50, i64 0)
  %52 = icmp ne i64 %51, 0
  br i1 %52, label %53, label %56

53:                                               ; preds = %38
  %54 = load ptr, ptr %6, align 8, !tbaa !9
  %55 = call ptr @zend_generator_revert_call_stack(ptr noundef %54)
  br label %56

56:                                               ; preds = %53, %38
  %57 = load ptr, ptr %4, align 8, !tbaa !4
  %58 = getelementptr inbounds nuw %struct._zend_generator, ptr %57, i32 0, i32 9
  %59 = getelementptr inbounds nuw %struct._zend_generator_node, ptr %58, i32 0, i32 0
  %60 = load ptr, ptr %59, align 8, !tbaa !73
  %61 = icmp ne ptr %60, null
  br i1 %61, label %62, label %69

62:                                               ; preds = %56
  %63 = load ptr, ptr %3, align 8, !tbaa !34
  %64 = load ptr, ptr %4, align 8, !tbaa !4
  %65 = getelementptr inbounds nuw %struct._zend_generator, ptr %64, i32 0, i32 9
  %66 = getelementptr inbounds nuw %struct._zend_generator_node, ptr %65, i32 0, i32 0
  %67 = load ptr, ptr %66, align 8, !tbaa !73
  %68 = getelementptr inbounds nuw %struct._zend_generator, ptr %67, i32 0, i32 0
  call void @zend_get_gc_buffer_add_obj(ptr noundef %63, ptr noundef %68)
  br label %69

69:                                               ; preds = %62, %56
  %70 = load ptr, ptr %7, align 8, !tbaa !72
  call void @llvm.lifetime.end.p0(i64 8, ptr %7) #11
  call void @llvm.lifetime.end.p0(i64 8, ptr %6) #11
  call void @llvm.lifetime.end.p0(i64 8, ptr %5) #11
  ret ptr %70
}