; Function Attrs: nounwind uwtable
define hidden ptr @zend_generator_frame_gc(ptr noundef %0, ptr noundef readonly captures(none) %1) local_unnamed_addr #0 {
  %3 = getelementptr inbounds nuw i8, ptr %1, i64 56
  %4 = load ptr, ptr %3, align 8, !tbaa !56
  %5 = getelementptr inbounds nuw i8, ptr %1, i64 72
  %6 = getelementptr inbounds nuw i8, ptr %1, i64 80
  %7 = getelementptr inbounds nuw i8, ptr %1, i64 81
  %8 = load i8, ptr %7, align 1, !tbaa !24
  %.not.i = icmp eq i8 %8, 0
  br i1 %.not.i, label %zend_get_gc_buffer_add_zval.exit, label %9

9:                                                ; preds = %2
  %10 = load ptr, ptr %0, align 8, !tbaa !92
  %11 = getelementptr inbounds nuw i8, ptr %0, i64 8
  %12 = load ptr, ptr %11, align 8, !tbaa !93
  %13 = icmp eq ptr %10, %12
  br i1 %13, label %14, label %15, !prof !26

14:                                               ; preds = %9
  tail call void @zend_get_gc_buffer_grow(ptr noundef nonnull %0) #11
  %.pre = load ptr, ptr %0, align 8, !tbaa !92
  br label %15

15:                                               ; preds = %14, %9
  %16 = phi ptr [ %.pre, %14 ], [ %10, %9 ]
  %17 = load ptr, ptr %5, align 8, !tbaa !24
  %18 = load i32, ptr %6, align 8, !tbaa !24
  store ptr %17, ptr %16, align 8, !tbaa !24
  %19 = getelementptr inbounds nuw i8, ptr %16, i64 8
  store i32 %18, ptr %19, align 8, !tbaa !24
  %20 = load ptr, ptr %0, align 8, !tbaa !92
  %21 = getelementptr inbounds nuw i8, ptr %20, i64 16
  store ptr %21, ptr %0, align 8, !tbaa !92
  br label %zend_get_gc_buffer_add_zval.exit

zend_get_gc_buffer_add_zval.exit:                 ; preds = %2, %15
  %22 = getelementptr inbounds nuw i8, ptr %1, i64 88
  %23 = getelementptr inbounds nuw i8, ptr %1, i64 96
  %24 = getelementptr inbounds nuw i8, ptr %1, i64 97
  %25 = load i8, ptr %24, align 1, !tbaa !24
  %.not.i24 = icmp eq i8 %25, 0
  br i1 %.not.i24, label %zend_get_gc_buffer_add_zval.exit25, label %26

26:                                               ; preds = %zend_get_gc_buffer_add_zval.exit
  %27 = load ptr, ptr %0, align 8, !tbaa !92
  %28 = getelementptr inbounds nuw i8, ptr %0, i64 8
  %29 = load ptr, ptr %28, align 8, !tbaa !93
  %30 = icmp eq ptr %27, %29
  br i1 %30, label %31, label %32, !prof !26

31:                                               ; preds = %26
  tail call void @zend_get_gc_buffer_grow(ptr noundef nonnull %0) #11
  %.pre36 = load ptr, ptr %0, align 8, !tbaa !92
  br label %32

32:                                               ; preds = %31, %26
  %33 = phi ptr [ %.pre36, %31 ], [ %27, %26 ]
  %34 = load ptr, ptr %22, align 8, !tbaa !24
  %35 = load i32, ptr %23, align 8, !tbaa !24
  store ptr %34, ptr %33, align 8, !tbaa !24
  %36 = getelementptr inbounds nuw i8, ptr %33, i64 8
  store i32 %35, ptr %36, align 8, !tbaa !24
  %37 = load ptr, ptr %0, align 8, !tbaa !92
  %38 = getelementptr inbounds nuw i8, ptr %37, i64 16
  store ptr %38, ptr %0, align 8, !tbaa !92
  br label %zend_get_gc_buffer_add_zval.exit25

zend_get_gc_buffer_add_zval.exit25:               ; preds = %zend_get_gc_buffer_add_zval.exit, %32
  %39 = getelementptr inbounds nuw i8, ptr %1, i64 104
  %40 = getelementptr inbounds nuw i8, ptr %1, i64 112
  %41 = getelementptr inbounds nuw i8, ptr %1, i64 113
  %42 = load i8, ptr %41, align 1, !tbaa !24
  %.not.i26 = icmp eq i8 %42, 0
  br i1 %.not.i26, label %zend_get_gc_buffer_add_zval.exit27, label %43

43:                                               ; preds = %zend_get_gc_buffer_add_zval.exit25
  %44 = load ptr, ptr %0, align 8, !tbaa !92
  %45 = getelementptr inbounds nuw i8, ptr %0, i64 8
  %46 = load ptr, ptr %45, align 8, !tbaa !93
  %47 = icmp eq ptr %44, %46
  br i1 %47, label %48, label %49, !prof !26

48:                                               ; preds = %43
  tail call void @zend_get_gc_buffer_grow(ptr noundef nonnull %0) #11
  %.pre37 = load ptr, ptr %0, align 8, !tbaa !92
  br label %49

49:                                               ; preds = %48, %43
  %50 = phi ptr [ %.pre37, %48 ], [ %44, %43 ]
  %51 = load ptr, ptr %39, align 8, !tbaa !24
  %52 = load i32, ptr %40, align 8, !tbaa !24
  store ptr %51, ptr %50, align 8, !tbaa !24
  %53 = getelementptr inbounds nuw i8, ptr %50, i64 8
  store i32 %52, ptr %53, align 8, !tbaa !24
  %54 = load ptr, ptr %0, align 8, !tbaa !92
  %55 = getelementptr inbounds nuw i8, ptr %54, i64 16
  store ptr %55, ptr %0, align 8, !tbaa !92
  br label %zend_get_gc_buffer_add_zval.exit27

zend_get_gc_buffer_add_zval.exit27:               ; preds = %zend_get_gc_buffer_add_zval.exit25, %49
  %56 = getelementptr inbounds nuw i8, ptr %1, i64 136
  %57 = getelementptr inbounds nuw i8, ptr %1, i64 144
  %58 = getelementptr inbounds nuw i8, ptr %1, i64 145
  %59 = load i8, ptr %58, align 1, !tbaa !24
  %.not.i28 = icmp eq i8 %59, 0
  br i1 %.not.i28, label %zend_get_gc_buffer_add_zval.exit29, label %60

60:                                               ; preds = %zend_get_gc_buffer_add_zval.exit27
  %61 = load ptr, ptr %0, align 8, !tbaa !92
  %62 = getelementptr inbounds nuw i8, ptr %0, i64 8
  %63 = load ptr, ptr %62, align 8, !tbaa !93
  %64 = icmp eq ptr %61, %63
  br i1 %64, label %65, label %66, !prof !26

65:                                               ; preds = %60
  tail call void @zend_get_gc_buffer_grow(ptr noundef nonnull %0) #11
  %.pre38 = load ptr, ptr %0, align 8, !tbaa !92
  br label %66

66:                                               ; preds = %65, %60
  %67 = phi ptr [ %.pre38, %65 ], [ %61, %60 ]
  %68 = load ptr, ptr %56, align 8, !tbaa !24
  %69 = load i32, ptr %57, align 8, !tbaa !24
  store ptr %68, ptr %67, align 8, !tbaa !24
  %70 = getelementptr inbounds nuw i8, ptr %67, i64 8
  store i32 %69, ptr %70, align 8, !tbaa !24
  %71 = load ptr, ptr %0, align 8, !tbaa !92
  %72 = getelementptr inbounds nuw i8, ptr %71, i64 16
  store ptr %72, ptr %0, align 8, !tbaa !92
  br label %zend_get_gc_buffer_add_zval.exit29

zend_get_gc_buffer_add_zval.exit29:               ; preds = %zend_get_gc_buffer_add_zval.exit27, %66
  %73 = getelementptr inbounds nuw i8, ptr %1, i64 64
  %74 = load ptr, ptr %73, align 8, !tbaa !4
  %.not = icmp eq ptr %74, null
  br i1 %.not, label %zend_generator_revert_call_stack.exit, label %.preheader35, !prof !58

.preheader35:                                     ; preds = %zend_get_gc_buffer_add_zval.exit29, %.preheader35
  %.07.i = phi ptr [ %.0.i, %.preheader35 ], [ null, %zend_get_gc_buffer_add_zval.exit29 ]
  %.0.i = phi ptr [ %76, %.preheader35 ], [ %74, %zend_get_gc_buffer_add_zval.exit29 ]
  %75 = getelementptr inbounds nuw i8, ptr %.0.i, i64 48
  %76 = load ptr, ptr %75, align 8, !tbaa !55
  store ptr %.07.i, ptr %75, align 8, !tbaa !55
  %.not.i30 = icmp eq ptr %76, null
  br i1 %.not.i30, label %zend_generator_revert_call_stack.exit, label %.preheader35

zend_generator_revert_call_stack.exit:            ; preds = %.preheader35, %zend_get_gc_buffer_add_zval.exit29
  %.0 = phi ptr [ null, %zend_get_gc_buffer_add_zval.exit29 ], [ %.0.i, %.preheader35 ]
  %77 = tail call ptr @zend_unfinished_execution_gc_ex(ptr noundef %4, ptr noundef %.0, ptr noundef %0, i1 noundef zeroext true) #11
  %78 = load ptr, ptr %73, align 8, !tbaa !4
  %.not22 = icmp eq ptr %78, null
  br i1 %.not22, label %zend_generator_revert_call_stack.exit34, label %.preheader, !prof !58

.preheader:                                       ; preds = %zend_generator_revert_call_stack.exit, %.preheader
  %.07.i31 = phi ptr [ %.0.i32, %.preheader ], [ null, %zend_generator_revert_call_stack.exit ]
  %.0.i32 = phi ptr [ %80, %.preheader ], [ %.0, %zend_generator_revert_call_stack.exit ]
  %79 = getelementptr inbounds nuw i8, ptr %.0.i32, i64 48
  %80 = load ptr, ptr %79, align 8, !tbaa !55
  store ptr %.07.i31, ptr %79, align 8, !tbaa !55
  %.not.i33 = icmp eq ptr %80, null
  br i1 %.not.i33, label %zend_generator_revert_call_stack.exit34, label %.preheader

zend_generator_revert_call_stack.exit34:          ; preds = %.preheader, %zend_generator_revert_call_stack.exit
  %81 = getelementptr inbounds nuw i8, ptr %1, i64 152
  %82 = load ptr, ptr %81, align 8, !tbaa !94
  %.not23 = icmp eq ptr %82, null
  br i1 %.not23, label %93, label %83

83:                                               ; preds = %zend_generator_revert_call_stack.exit34
  %84 = load ptr, ptr %0, align 8, !tbaa !92
  %85 = getelementptr inbounds nuw i8, ptr %0, i64 8
  %86 = load ptr, ptr %85, align 8, !tbaa !93
  %87 = icmp eq ptr %84, %86
  br i1 %87, label %88, label %zend_get_gc_buffer_add_obj.exit, !prof !26

88:                                               ; preds = %83
  tail call void @zend_get_gc_buffer_grow(ptr noundef nonnull %0) #11
  %.pre39 = load ptr, ptr %0, align 8, !tbaa !92
  br label %zend_get_gc_buffer_add_obj.exit

zend_get_gc_buffer_add_obj.exit:                  ; preds = %83, %88
  %89 = phi ptr [ %84, %83 ], [ %.pre39, %88 ]
  store ptr %82, ptr %89, align 8, !tbaa !24
  %90 = getelementptr inbounds nuw i8, ptr %89, i64 8
  store i32 776, ptr %90, align 8, !tbaa !24
  %91 = load ptr, ptr %0, align 8, !tbaa !92
  %92 = getelementptr inbounds nuw i8, ptr %91, i64 16
  store ptr %92, ptr %0, align 8, !tbaa !92
  br label %93

93:                                               ; preds = %zend_get_gc_buffer_add_obj.exit, %zend_generator_revert_call_stack.exit34
  ret ptr %77
}